target datalayout = "e-m:e-p270:32:32-p271:32:32-p272:64:64-i64:64-i128:128-f80:128-n8:16:32:64-S128"
target triple = "x86_64-unknown-linux-gnu"

; Function Attrs: mustprogress uwtable
define void @ucal_setDefaultTimeZone_75(ptr noundef %zoneID, ptr noundef %ec) #1 {
entry:
  %zoneID.addr = alloca ptr, align 8
  %ec.addr = alloca ptr, align 8
  %zone = alloca ptr, align 8
  store ptr %zoneID, ptr %zoneID.addr, align 8
  store ptr %ec, ptr %ec.addr, align 8
  %0 = load ptr, ptr %zoneID.addr, align 8
  %1 = load ptr, ptr %ec.addr, align 8
  %call = call noundef ptr @_ZL15_createTimeZonePKDsiP10UErrorCode(ptr noundef %0, i32 noundef -1, ptr noundef %1)
  store ptr %call, ptr %zone, align 8
  %2 = load ptr, ptr %zone, align 8
  %cmp = icmp ne ptr %2, null
  br i1 %cmp, label %if.then, label %if.end

if.then:                                          ; preds = %entry
  %3 = load ptr, ptr %zone, align 8
  call void @_ZN6icu_758TimeZone12adoptDefaultEPS0_(ptr noundef %3)
  br label %if.end

if.end:                                           ; preds = %if.then, %entry
  ret void
}