; Function Attrs: mustprogress uwtable
define void @ucal_setDefaultTimeZone_75(ptr noundef %zoneID, ptr noundef %ec) local_unnamed_addr #1 {
entry:
  %call = tail call fastcc noundef ptr @_ZL15_createTimeZonePKDsiP10UErrorCode(ptr noundef %zoneID, i32 noundef -1, ptr noundef %ec)
  %cmp.not = icmp eq ptr %call, null
  br i1 %cmp.not, label %if.end, label %if.then

if.then:                                          ; preds = %entry
  tail call void @_ZN6icu_758TimeZone12adoptDefaultEPS0_(ptr noundef nonnull %call)
  br label %if.end

if.end:                                           ; preds = %if.then, %entry
  ret void
}